target datalayout = "e-m:e-p270:32:32-p271:32:32-p272:64:64-i64:64-i128:128-f80:128-n8:16:32:64-S128"
target triple = "x86_64-pc-linux-gnu"

%struct.SDL_WaylandSeat = type { ptr, ptr, ptr, ptr, ptr, %struct.wl_list, i32, i32, %struct.anon, %struct.anon.1, %struct.anon.4, %struct.anon.5, %struct.anon.6 }
%struct.wl_list = type { ptr, ptr }
%struct.anon = type { ptr, ptr, ptr, ptr, ptr, %struct.SDL_WaylandKeyboardRepeat, i64, i16, i16, i32, i8, %struct.anon.0 }
%struct.SDL_WaylandKeyboardRepeat = type { i32, i32, i32, i8, i8, i32, i64, i64, i64, i32, [8 x i8] }
%struct.anon.0 = type { ptr, ptr, ptr, ptr, i32, i32, i32, i32, i32, i32, i32, i32, i32, i32, i32 }
%struct.anon.1 = type { ptr, ptr, ptr, ptr, ptr, ptr, ptr, ptr, i64, i32, i32, %struct.SDL_Point, i32, %struct.anon.2, %struct.anon.3 }
%struct.SDL_Point = type { i32, i32 }
%struct.anon.2 = type { i32, float, i32, float, i64, i32 }
%struct.anon.3 = type { ptr, ptr, ptr, i64, i64, i32 }
%struct.anon.4 = type { ptr, ptr, i64, %struct.wl_list }
%struct.anon.5 = type { ptr, %struct.SDL_Rect, i8, i8 }
%struct.SDL_Rect = type { i32, i32, i32, i32 }
%struct.anon.6 = type { ptr, %struct.wl_list }
%struct.SDL_AtomicInt = type { i32 }
%struct.SDL_WindowData = type { ptr, ptr, ptr, ptr, ptr, ptr, ptr, %union.anon, i32, i32, i32, i32, ptr, ptr, ptr, ptr, ptr, ptr, ptr, ptr, ptr, ptr, ptr, ptr, ptr, ptr, %struct.SDL_AtomicInt, ptr, i32, ptr, double, ptr, i32, i32, i32, i32, %struct.anon.14, %struct.anon.15, %struct.anon.16, %struct.anon.17, %struct.anon.18, %struct.anon.19, %struct.anon.20, i32, i32, i32, i64, i32, i32, i8, i8, i8, i8, i8, i8, i8, i8, i8, i8, i8, i8, i8, i8, i32, %struct.wl_list }
%union.anon = type { %struct.anon.10 }
%struct.anon.10 = type { ptr, %union.anon.11, i8 }
%union.anon.11 = type { %struct.anon.13 }
%struct.anon.13 = type { ptr, ptr }
%struct.anon.14 = type { double, double }
%struct.anon.15 = type { i32, i32, i32, i32 }
%struct.anon.16 = type { i32, i32, i32, i32 }
%struct.anon.17 = type { i32, i32 }
%struct.anon.18 = type { i32, i32 }
%struct.anon.19 = type { i32, i32 }
%struct.anon.20 = type { i32, i32, i8 }
%struct.SDL_WaylandTouchPoint = type { i64, i32, i32, ptr, %struct.wl_list }
%union.anon.21 = type { double }

@WAYLAND_wl_list_remove = external global ptr, align 8
@Wayland_EventTimestampMSToNS.timestamp_offset = internal global i64 0, align 8
@Wayland_EventTimestampMSToNS.last = internal global i32 0, align 4
@Wayland_AdjustEventTimestampBase.timestamp_offset = internal global i64 0, align 8
@WAYLAND_wl_proxy_get_user_data = external global ptr, align 8

; Function Attrs: nounwind uwtable
define internal i64 @Wayland_AdjustEventTimestampBase(i64 noundef %0) #0 {
  %2 = alloca i64, align 8
  %3 = alloca i64, align 8
  store i64 %0, ptr %2, align 8
  call void @llvm.lifetime.start.p0(i64 8, ptr %3) #10
  %4 = call i64 @SDL_GetTicksNS_REAL()
  store i64 %4, ptr %3, align 8
  %5 = load i64, ptr @Wayland_AdjustEventTimestampBase.timestamp_offset, align 8
  %6 = icmp ne i64 %5, 0
  br i1 %6, label %11, label %7

7:                                                ; preds = %1
  %8 = load i64, ptr %3, align 8
  %9 = load i64, ptr %2, align 8
  %10 = sub i64 %8, %9
  store i64 %10, ptr @Wayland_AdjustEventTimestampBase.timestamp_offset, align 8
  br label %11

11:                                               ; preds = %7, %1
  %12 = load i64, ptr @Wayland_AdjustEventTimestampBase.timestamp_offset, align 8
  %13 = load i64, ptr %2, align 8
  %14 = add i64 %13, %12
  store i64 %14, ptr %2, align 8
  %15 = load i64, ptr %2, align 8
  %16 = load i64, ptr %3, align 8
  %17 = icmp ugt i64 %15, %16
  br i1 %17, label %18, label %25

18:                                               ; preds = %11
  %19 = load i64, ptr %2, align 8
  %20 = load i64, ptr %3, align 8
  %21 = sub i64 %19, %20
  %22 = load i64, ptr @Wayland_AdjustEventTimestampBase.timestamp_offset, align 8
  %23 = sub i64 %22, %21
  store i64 %23, ptr @Wayland_AdjustEventTimestampBase.timestamp_offset, align 8
  %24 = load i64, ptr %3, align 8
  store i64 %24, ptr %2, align 8
  br label %25

25:                                               ; preds = %18, %11
  %26 = load i64, ptr %2, align 8
  call void @llvm.lifetime.end.p0(i64 8, ptr %3) #10
  ret i64 %26
}

; Function Attrs: nounwind uwtable
define internal i64 @Wayland_EventTimestampMSToNS(i32 noundef %0) #0 {
  %2 = alloca i32, align 4
  store i32 %0, ptr %2, align 4
  %3 = load i32, ptr %2, align 4
  %4 = load i32, ptr @Wayland_EventTimestampMSToNS.last, align 4
  %5 = icmp ult i32 %3, %4
  br i1 %5, label %6, label %9

6:                                                ; preds = %1
  %7 = load i64, ptr @Wayland_EventTimestampMSToNS.timestamp_offset, align 8
  %8 = add i64 %7, 4294967296000000
  store i64 %8, ptr @Wayland_EventTimestampMSToNS.timestamp_offset, align 8
  br label %9

9:                                                ; preds = %6, %1
  %10 = load i32, ptr %2, align 4
  store i32 %10, ptr @Wayland_EventTimestampMSToNS.last, align 4
  %11 = load i32, ptr %2, align 4
  %12 = zext i32 %11 to i64
  %13 = mul i64 %12, 1000000
  %14 = load i64, ptr @Wayland_EventTimestampMSToNS.timestamp_offset, align 8
  %15 = add i64 %13, %14
  ret i64 %15
}

; Function Attrs: nounwind uwtable
define hidden i64 @Wayland_GetTouchTimestamp(ptr noundef %0, i32 noundef %1) #0 {
  %3 = alloca ptr, align 8
  %4 = alloca i32, align 4
  %5 = alloca i64, align 8
  store ptr %0, ptr %3, align 8
  store i32 %1, ptr %4, align 4
  call void @llvm.lifetime.start.p0(i64 8, ptr %5) #10
  %6 = load i32, ptr %4, align 4
  %7 = call i64 @Wayland_EventTimestampMSToNS(i32 noundef %6)
  store i64 %7, ptr %5, align 8
  %8 = load ptr, ptr %3, align 8
  %9 = getelementptr inbounds nuw %struct.SDL_WaylandSeat, ptr %8, i32 0, i32 10
  %10 = getelementptr inbounds nuw %struct.anon.4, ptr %9, i32 0, i32 1
  %11 = load ptr, ptr %10, align 8
  %12 = icmp ne ptr %11, null
  br i1 %12, label %13, label %18

13:                                               ; preds = %2
  %14 = load ptr, ptr %3, align 8
  %15 = getelementptr inbounds nuw %struct.SDL_WaylandSeat, ptr %14, i32 0, i32 10
  %16 = getelementptr inbounds nuw %struct.anon.4, ptr %15, i32 0, i32 2
  %17 = load i64, ptr %16, align 8
  br label %20

18:                                               ; preds = %2
  %19 = load i64, ptr %5, align 8
  br label %20

20:                                               ; preds = %18, %13
  %21 = phi i64 [ %17, %13 ], [ %19, %18 ]
  %22 = call i64 @Wayland_AdjustEventTimestampBase(i64 noundef %21)
  call void @llvm.lifetime.end.p0(i64 8, ptr %5) #10
  ret i64 %22
}

; Function Attrs: inlinehint nounwind uwtable
define internal double @wl_fixed_to_double(i32 noundef %0) #2 {
  %2 = alloca i32, align 4
  %3 = alloca %union.anon.21, align 8
  store i32 %0, ptr %2, align 4
  call void @llvm.lifetime.start.p0(i64 8, ptr %3) #10
  %4 = load i32, ptr %2, align 4
  %5 = sext i32 %4 to i64
  %6 = add nsw i64 4807592602218004480, %5
  store i64 %6, ptr %3, align 8
  %7 = load double, ptr %3, align 8
  %8 = fsub double %7, 0x42B8000000000000
  call void @llvm.lifetime.end.p0(i64 8, ptr %3) #10
  ret double %8
}

; Function Attrs: inlinehint nounwind uwtable
define internal ptr @wl_surface_get_user_data(ptr noundef %0) #2 {
  %2 = alloca ptr, align 8
  store ptr %0, ptr %2, align 8
  %3 = load ptr, ptr @WAYLAND_wl_proxy_get_user_data, align 8
  %4 = load ptr, ptr %2, align 8
  %5 = call ptr %3(ptr noundef %4)
  ret ptr %5
}

; Function Attrs: nounwind uwtable
define internal void @Wayland_SeatRemoveTouch(ptr noundef %0, i64 noundef %1, ptr noundef %2, ptr noundef %3, ptr noundef %4) #0 {
  %6 = alloca ptr, align 8
  %7 = alloca i64, align 8
  %8 = alloca ptr, align 8
  %9 = alloca ptr, align 8
  %10 = alloca ptr, align 8
  %11 = alloca ptr, align 8
  store ptr %0, ptr %6, align 8
  store i64 %1, ptr %7, align 8
  store ptr %2, ptr %8, align 8
  store ptr %3, ptr %9, align 8
  store ptr %4, ptr %10, align 8
  call void @llvm.lifetime.start.p0(i64 8, ptr %11) #10
  %12 = load ptr, ptr %6, align 8
  %13 = getelementptr inbounds nuw %struct.SDL_WaylandSeat, ptr %12, i32 0, i32 10
  %14 = getelementptr inbounds nuw %struct.anon.4, ptr %13, i32 0, i32 3
  %15 = getelementptr inbounds nuw %struct.wl_list, ptr %14, i32 0, i32 1
  %16 = load ptr, ptr %15, align 8
  %17 = getelementptr inbounds i8, ptr %16, i64 -24
  store ptr %17, ptr %11, align 8
  br label %18

18:                                               ; preds = %61, %5
  %19 = load ptr, ptr %11, align 8
  %20 = getelementptr inbounds nuw %struct.SDL_WaylandTouchPoint, ptr %19, i32 0, i32 4
  %21 = load ptr, ptr %6, align 8
  %22 = getelementptr inbounds nuw %struct.SDL_WaylandSeat, ptr %21, i32 0, i32 10
  %23 = getelementptr inbounds nuw %struct.anon.4, ptr %22, i32 0, i32 3
  %24 = icmp ne ptr %20, %23
  br i1 %24, label %25, label %67

25:                                               ; preds = %18
  %26 = load ptr, ptr %11, align 8
  %27 = getelementptr inbounds nuw %struct.SDL_WaylandTouchPoint, ptr %26, i32 0, i32 0
  %28 = load i64, ptr %27, align 8
  %29 = load i64, ptr %7, align 8
  %30 = icmp eq i64 %28, %29
  br i1 %30, label %31, label %60

31:                                               ; preds = %25
  %32 = load ptr, ptr %8, align 8
  %33 = icmp ne ptr %32, null
  br i1 %33, label %34, label %39

34:                                               ; preds = %31
  %35 = load ptr, ptr %11, align 8
  %36 = getelementptr inbounds nuw %struct.SDL_WaylandTouchPoint, ptr %35, i32 0, i32 1
  %37 = load i32, ptr %36, align 8
  %38 = load ptr, ptr %8, align 8
  store i32 %37, ptr %38, align 4
  br label %39

39:                                               ; preds = %34, %31
  %40 = load ptr, ptr %9, align 8
  %41 = icmp ne ptr %40, null
  br i1 %41, label %42, label %47

42:                                               ; preds = %39
  %43 = load ptr, ptr %11, align 8
  %44 = getelementptr inbounds nuw %struct.SDL_WaylandTouchPoint, ptr %43, i32 0, i32 2
  %45 = load i32, ptr %44, align 4
  %46 = load ptr, ptr %9, align 8
  store i32 %45, ptr %46, align 4
  br label %47

47:                                               ; preds = %42, %39
  %48 = load ptr, ptr %10, align 8
  %49 = icmp ne ptr %48, null
  br i1 %49, label %50, label %55

50:                                               ; preds = %47
  %51 = load ptr, ptr %11, align 8
  %52 = getelementptr inbounds nuw %struct.SDL_WaylandTouchPoint, ptr %51, i32 0, i32 3
  %53 = load ptr, ptr %52, align 8
  %54 = load ptr, ptr %10, align 8
  store ptr %53, ptr %54, align 8
  br label %55

55:                                               ; preds = %50, %47
  %56 = load ptr, ptr @WAYLAND_wl_list_remove, align 8
  %57 = load ptr, ptr %11, align 8
  %58 = getelementptr inbounds nuw %struct.SDL_WaylandTouchPoint, ptr %57, i32 0, i32 4
  call void %56(ptr noundef %58)
  %59 = load ptr, ptr %11, align 8
  call void @SDL_free_REAL(ptr noundef %59)
  br label %67

60:                                               ; preds = %25
  br label %61

61:                                               ; preds = %60
  %62 = load ptr, ptr %11, align 8
  %63 = getelementptr inbounds nuw %struct.SDL_WaylandTouchPoint, ptr %62, i32 0, i32 4
  %64 = getelementptr inbounds nuw %struct.wl_list, ptr %63, i32 0, i32 1
  %65 = load ptr, ptr %64, align 8
  %66 = getelementptr inbounds i8, ptr %65, i64 -24
  store ptr %66, ptr %11, align 8
  br label %18, !llvm.loop !31

67:                                               ; preds = %55, %18
  call void @llvm.lifetime.end.p0(i64 8, ptr %11) #10
  ret void
}

; Function Attrs: nounwind uwtable
define internal void @touch_handler_up(ptr noundef %0, ptr noundef %1, i32 noundef %2, i32 noundef %3, i32 noundef %4) #0 {
  %6 = alloca ptr, align 8
  %7 = alloca ptr, align 8
  %8 = alloca i32, align 4
  %9 = alloca i32, align 4
  %10 = alloca i32, align 4
  %11 = alloca ptr, align 8
  %12 = alloca i32, align 4
  %13 = alloca i32, align 4
  %14 = alloca ptr, align 8
  %15 = alloca ptr, align 8
  %16 = alloca float, align 4
  %17 = alloca float, align 4
  store ptr %0, ptr %6, align 8
  store ptr %1, ptr %7, align 8
  store i32 %2, ptr %8, align 4
  store i32 %3, ptr %9, align 4
  store i32 %4, ptr %10, align 4
  call void @llvm.lifetime.start.p0(i64 8, ptr %11) #10
  %18 = load ptr, ptr %6, align 8
  store ptr %18, ptr %11, align 8
  call void @llvm.lifetime.start.p0(i64 4, ptr %12) #10
  store i32 0, ptr %12, align 4
  call void @llvm.lifetime.start.p0(i64 4, ptr %13) #10
  store i32 0, ptr %13, align 4
  call void @llvm.lifetime.start.p0(i64 8, ptr %14) #10
  store ptr null, ptr %14, align 8
  %19 = load ptr, ptr %11, align 8
  %20 = load i32, ptr %10, align 4
  %21 = sext i32 %20 to i64
  call void @Wayland_SeatRemoveTouch(ptr noundef %19, i64 noundef %21, ptr noundef %12, ptr noundef %13, ptr noundef %14)
  %22 = load ptr, ptr %14, align 8
  %23 = icmp ne ptr %22, null
  br i1 %23, label %24, label %88

24:                                               ; preds = %5
  call void @llvm.lifetime.start.p0(i64 8, ptr %15) #10
  %25 = load ptr, ptr %14, align 8
  %26 = call ptr @wl_surface_get_user_data(ptr noundef %25)
  store ptr %26, ptr %15, align 8
  %27 = load ptr, ptr %15, align 8
  %28 = icmp ne ptr %27, null
  br i1 %28, label %29, label %87

29:                                               ; preds = %24
  call void @llvm.lifetime.start.p0(i64 4, ptr %16) #10
  %30 = load i32, ptr %12, align 4
  %31 = call double @wl_fixed_to_double(i32 noundef %30)
  %32 = fptrunc double %31 to float
  %33 = load ptr, ptr %15, align 8
  %34 = getelementptr inbounds nuw %struct.SDL_WindowData, ptr %33, i32 0, i32 38
  %35 = getelementptr inbounds nuw %struct.anon.16, ptr %34, i32 0, i32 0
  %36 = load i32, ptr %35, align 8
  %37 = sitofp i32 %36 to float
  %38 = fdiv float %32, %37
  store float %38, ptr %16, align 4
  call void @llvm.lifetime.start.p0(i64 4, ptr %17) #10
  %39 = load i32, ptr %13, align 4
  %40 = call double @wl_fixed_to_double(i32 noundef %39)
  %41 = fptrunc double %40 to float
  %42 = load ptr, ptr %15, align 8
  %43 = getelementptr inbounds nuw %struct.SDL_WindowData, ptr %42, i32 0, i32 38
  %44 = getelementptr inbounds nuw %struct.anon.16, ptr %43, i32 0, i32 1
  %45 = load i32, ptr %44, align 4
  %46 = sitofp i32 %45 to float
  %47 = fdiv float %41, %46
  store float %47, ptr %17, align 4
  %48 = load ptr, ptr %11, align 8
  %49 = load i32, ptr %9, align 4
  %50 = call i64 @Wayland_GetTouchTimestamp(ptr noundef %48, i32 noundef %49)
  %51 = load ptr, ptr %7, align 8
  %52 = ptrtoint ptr %51 to i64
  %53 = load i32, ptr %10, align 4
  %54 = add nsw i32 %53, 1
  %55 = sext i32 %54 to i64
  %56 = load ptr, ptr %15, align 8
  %57 = getelementptr inbounds nuw %struct.SDL_WindowData, ptr %56, i32 0, i32 0
  %58 = load ptr, ptr %57, align 8
  %59 = load float, ptr %16, align 4
  %60 = load float, ptr %17, align 4
  call void @SDL_SendTouch(i64 noundef %50, i64 noundef %52, i64 noundef %55, ptr noundef %58, i32 noundef 1793, float noundef %59, float noundef %60, float noundef 0.000000e+00)
  %61 = load ptr, ptr %15, align 8
  %62 = getelementptr inbounds nuw %struct.SDL_WindowData, ptr %61, i32 0, i32 35
  %63 = load i32, ptr %62, align 4
  %64 = add nsw i32 %63, -1
  store i32 %64, ptr %62, align 4
  %65 = call ptr @SDL_GetMouseFocus_REAL()
  %66 = load ptr, ptr %15, align 8
  %67 = getelementptr inbounds nuw %struct.SDL_WindowData, ptr %66, i32 0, i32 0
  %68 = load ptr, ptr %67, align 8
  %69 = icmp eq ptr %65, %68
  br i1 %69, label %70, label %86

70:                                               ; preds = %29
  %71 = load ptr, ptr %15, align 8
  %72 = getelementptr inbounds nuw %struct.SDL_WindowData, ptr %71, i32 0, i32 33
  %73 = load i32, ptr %72, align 4
  %74 = icmp ne i32 %73, 0
  br i1 %74, label %86, label %75

75:                                               ; preds = %70
  %76 = load ptr, ptr %15, align 8
  %77 = getelementptr inbounds nuw %struct.SDL_WindowData, ptr %76, i32 0, i32 34
  %78 = load i32, ptr %77, align 8
  %79 = icmp ne i32 %78, 0
  br i1 %79, label %86, label %80

80:                                               ; preds = %75
  %81 = load ptr, ptr %15, align 8
  %82 = getelementptr inbounds nuw %struct.SDL_WindowData, ptr %81, i32 0, i32 35
  %83 = load i32, ptr %82, align 4
  %84 = icmp ne i32 %83, 0
  br i1 %84, label %86, label %85

85:                                               ; preds = %80
  call void @SDL_SetMouseFocus(ptr noundef null)
  br label %86

86:                                               ; preds = %85, %80, %75, %70, %29
  call void @llvm.lifetime.end.p0(i64 4, ptr %17) #10
  call void @llvm.lifetime.end.p0(i64 4, ptr %16) #10
  br label %87

87:                                               ; preds = %86, %24
  call void @llvm.lifetime.end.p0(i64 8, ptr %15) #10
  br label %88

88:                                               ; preds = %87, %5
  call void @llvm.lifetime.end.p0(i64 8, ptr %14) #10
  call void @llvm.lifetime.end.p0(i64 4, ptr %13) #10
  call void @llvm.lifetime.end.p0(i64 4, ptr %12) #10
  call void @llvm.lifetime.end.p0(i64 8, ptr %11) #10
  ret void
}