; Function Attrs: nounwind uwtable
define internal void @touch_handler_up(ptr noundef readonly captures(address) %0, ptr noundef %1, i32 %2, i32 noundef %3, i32 noundef %4) #0 {
  %6 = sext i32 %4 to i64
  %7 = getelementptr inbounds nuw i8, ptr %0, i64 472
  %8 = getelementptr inbounds nuw i8, ptr %0, i64 480
  %.pn22.i = load ptr, ptr %8, align 8
  %.not24.i = icmp eq ptr %.pn22.i, %7
  br i1 %.not24.i, label %Wayland_SeatRemoveTouch.exit.thread, label %.lr.ph.i

.lr.ph.i:                                         ; preds = %5, %11
  %.pn25.i = phi ptr [ %.pn.i, %11 ], [ %.pn22.i, %5 ]
  %.026.i = getelementptr inbounds i8, ptr %.pn25.i, i64 -24
  %9 = load i64, ptr %.026.i, align 8
  %10 = icmp eq i64 %9, %6
  br i1 %10, label %Wayland_SeatRemoveTouch.exit, label %11

11:                                               ; preds = %.lr.ph.i
  %12 = getelementptr inbounds nuw i8, ptr %.pn25.i, i64 8
  %.pn.i = load ptr, ptr %12, align 8
  %.not.i = icmp eq ptr %.pn.i, %7
  br i1 %.not.i, label %Wayland_SeatRemoveTouch.exit.thread, label %.lr.ph.i, !llvm.loop !30

Wayland_SeatRemoveTouch.exit:                     ; preds = %.lr.ph.i
  %.026.i.le = getelementptr inbounds i8, ptr %.pn25.i, i64 -24
  %13 = getelementptr inbounds i8, ptr %.pn25.i, i64 -16
  %14 = load i32, ptr %13, align 8
  %15 = getelementptr inbounds i8, ptr %.pn25.i, i64 -12
  %16 = load i32, ptr %15, align 4
  %17 = getelementptr inbounds i8, ptr %.pn25.i, i64 -8
  %18 = load ptr, ptr %17, align 8
  %19 = load ptr, ptr @WAYLAND_wl_list_remove, align 8
  tail call void %19(ptr noundef nonnull %.pn25.i) #12
  tail call void @SDL_free_REAL(ptr noundef nonnull %.026.i.le) #12
  %.not = icmp eq ptr %18, null
  br i1 %.not, label %Wayland_SeatRemoveTouch.exit.thread, label %20

20:                                               ; preds = %Wayland_SeatRemoveTouch.exit
  %21 = load ptr, ptr @WAYLAND_wl_proxy_get_user_data, align 8
  %22 = tail call ptr %21(ptr noundef nonnull %18) #12
  %.not18 = icmp eq ptr %22, null
  br i1 %.not18, label %Wayland_SeatRemoveTouch.exit.thread, label %23

23:                                               ; preds = %20
  %24 = sext i32 %14 to i64
  %25 = add nsw i64 %24, 4807592602218004480
  %26 = bitcast i64 %25 to double
  %27 = fadd double %26, 0xC2B8000000000000
  %28 = fptrunc double %27 to float
  %29 = getelementptr inbounds nuw i8, ptr %22, i64 312
  %30 = load i32, ptr %29, align 8
  %31 = sitofp i32 %30 to float
  %32 = fdiv float %28, %31
  %33 = sext i32 %16 to i64
  %34 = add nsw i64 %33, 4807592602218004480
  %35 = bitcast i64 %34 to double
  %36 = fadd double %35, 0xC2B8000000000000
  %37 = fptrunc double %36 to float
  %38 = getelementptr inbounds nuw i8, ptr %22, i64 316
  %39 = load i32, ptr %38, align 4
  %40 = sitofp i32 %39 to float
  %41 = fdiv float %37, %40
  %42 = load i32, ptr @Wayland_EventTimestampMSToNS.last, align 4
  %43 = icmp ult i32 %3, %42
  %.pre.i.i = load i64, ptr @Wayland_EventTimestampMSToNS.timestamp_offset, align 8
  br i1 %43, label %44, label %Wayland_EventTimestampMSToNS.exit.i

44:                                               ; preds = %23
  %45 = add i64 %.pre.i.i, 4294967296000000
  store i64 %45, ptr @Wayland_EventTimestampMSToNS.timestamp_offset, align 8
  br label %Wayland_EventTimestampMSToNS.exit.i

Wayland_EventTimestampMSToNS.exit.i:              ; preds = %44, %23
  %46 = phi i64 [ %45, %44 ], [ %.pre.i.i, %23 ]
  store i32 %3, ptr @Wayland_EventTimestampMSToNS.last, align 4
  %47 = zext i32 %3 to i64
  %48 = mul nuw nsw i64 %47, 1000000
  %49 = add i64 %46, %48
  %50 = getelementptr inbounds nuw i8, ptr %0, i64 456
  %51 = load ptr, ptr %50, align 8
  %.not.i22 = icmp eq ptr %51, null
  br i1 %.not.i22, label %55, label %52

52:                                               ; preds = %Wayland_EventTimestampMSToNS.exit.i
  %53 = getelementptr inbounds nuw i8, ptr %0, i64 464
  %54 = load i64, ptr %53, align 8
  br label %55

55:                                               ; preds = %52, %Wayland_EventTimestampMSToNS.exit.i
  %56 = phi i64 [ %54, %52 ], [ %49, %Wayland_EventTimestampMSToNS.exit.i ]
  %57 = tail call i64 @SDL_GetTicksNS_REAL() #12
  %58 = load i64, ptr @Wayland_AdjustEventTimestampBase.timestamp_offset, align 8
  %.not.not.i.i = icmp eq i64 %58, 0
  %59 = sub i64 %57, %56
  %60 = select i1 %.not.not.i.i, i64 %59, i64 %58
  %61 = add i64 %60, %56
  %.not.i.i = icmp ugt i64 %61, %57
  %62 = or i1 %.not.not.i.i, %.not.i.i
  br i1 %62, label %63, label %Wayland_GetTouchTimestamp.exit

63:                                               ; preds = %55
  %simplifycfg.merge.i.i = select i1 %.not.i.i, i64 %59, i64 %60
  store i64 %simplifycfg.merge.i.i, ptr @Wayland_AdjustEventTimestampBase.timestamp_offset, align 8
  br label %Wayland_GetTouchTimestamp.exit

Wayland_GetTouchTimestamp.exit:                   ; preds = %55, %63
  %.0.i.i = tail call i64 @llvm.umin.i64(i64 %61, i64 %57)
  %64 = ptrtoint ptr %1 to i64
  %65 = add nsw i32 %4, 1
  %66 = sext i32 %65 to i64
  %67 = load ptr, ptr %22, align 8
  tail call void @SDL_SendTouch(i64 noundef %.0.i.i, i64 noundef %64, i64 noundef %66, ptr noundef %67, i32 noundef 1793, float noundef %32, float noundef %41, float noundef 0.000000e+00) #12
  %68 = getelementptr inbounds nuw i8, ptr %22, i64 276
  %69 = load i32, ptr %68, align 4
  %70 = add nsw i32 %69, -1
  store i32 %70, ptr %68, align 4
  %71 = tail call ptr @SDL_GetMouseFocus_REAL() #12
  %72 = load ptr, ptr %22, align 8
  %73 = icmp eq ptr %71, %72
  br i1 %73, label %74, label %Wayland_SeatRemoveTouch.exit.thread

74:                                               ; preds = %Wayland_GetTouchTimestamp.exit
  %75 = getelementptr inbounds nuw i8, ptr %22, i64 268
  %76 = load i32, ptr %75, align 4
  %.not19 = icmp eq i32 %76, 0
  br i1 %.not19, label %77, label %Wayland_SeatRemoveTouch.exit.thread

77:                                               ; preds = %74
  %78 = getelementptr inbounds nuw i8, ptr %22, i64 272
  %79 = load i32, ptr %78, align 8
  %.not20 = icmp eq i32 %79, 0
  br i1 %.not20, label %80, label %Wayland_SeatRemoveTouch.exit.thread

80:                                               ; preds = %77
  %81 = load i32, ptr %68, align 4
  %.not21 = icmp eq i32 %81, 0
  br i1 %.not21, label %82, label %Wayland_SeatRemoveTouch.exit.thread

82:                                               ; preds = %80
  tail call void @SDL_SetMouseFocus(ptr noundef null) #12
  br label %Wayland_SeatRemoveTouch.exit.thread

Wayland_SeatRemoveTouch.exit.thread:              ; preds = %11, %5, %20, %82, %80, %77, %74, %Wayland_GetTouchTimestamp.exit, %Wayland_SeatRemoveTouch.exit
  ret void
}